target datalayout = "e-m:e-p270:32:32-p271:32:32-p272:64:64-i64:64-i128:128-f80:128-n8:16:32:64-S128"
target triple = "x86_64-pc-linux-gnu"

%struct.lstopo_output = type { ptr, i32, i32, i32, ptr, i32, i32, i32, i32, i32, i32, i32, i32, ptr, ptr, i32, i32, i64, i64, i64, i32, [3 x [128 x i8]], i32, i32, ptr, i32, i32, i32, i32, i32, i32, %struct.hwloc_calc_level, i32, i32, i32, i64, [256 x i8], i32, i32, i32, i32, i32, float, [20 x i32], i32, i32, i32, [20 x i32], i32, [20 x i32], i32, [20 x i32], i32, i32, i32, i32, ptr, ptr, i32, [20 x i32], [20 x i32], [20 x i32], ptr, ptr, i64, ptr, i32, i32, i32 }
%struct.hwloc_calc_level = type { i32, i32, %union.hwloc_obj_attr_u, [32 x i8], i32, i32, i32, i32 }
%union.hwloc_obj_attr_u = type { %struct.hwloc_numanode_attr_s, [24 x i8] }
%struct.hwloc_numanode_attr_s = type { i64, i32, ptr }
%struct.hwloc_infos_s = type { ptr, i32, i32 }
%struct.hwloc_obj = type { i32, ptr, i32, ptr, i64, ptr, i32, i32, ptr, ptr, ptr, i32, ptr, ptr, i32, ptr, ptr, ptr, i32, i32, ptr, i32, ptr, i32, ptr, ptr, ptr, ptr, ptr, %struct.hwloc_infos_s, ptr, i64 }
%struct.lstopo_obj_userdata = type { %struct.hwloc_utils_userdata, i32, i32, %struct.lstopo_style, i32, i32, i32, i32, %struct.lstopo_children_position, %struct.lstopo_children_position, %struct.lstopo_children_position, %struct.lstopo_children_position, i32, i32, i32, [4 x %struct.lstopo_text_line], i32, i32 }
%struct.hwloc_utils_userdata = type { ptr, i64, ptr, ptr }
%struct.lstopo_style = type { ptr, ptr, ptr }
%struct.lstopo_children_position = type { i32, i32, i32, i32, i32, i32, ptr }
%struct.lstopo_text_line = type { [128 x i8], i32, i32 }

@.str.3 = private unnamed_addr constant [2 x i8] c"\0A\00", align 1
@.str.8 = private unnamed_addr constant [1 x i8] zeroinitializer, align 1
@.str.77 = private unnamed_addr constant [4 x i8] c" + \00", align 1
@.str.78 = private unnamed_addr constant [4 x i8] c"%*s\00", align 1
@.str.79 = private unnamed_addr constant [8 x i8] c"%d x { \00", align 1
@.str.80 = private unnamed_addr constant [3 x i8] c" }\00", align 1

; Function Attrs: nounwind uwtable
define internal void @output_topology(ptr noundef %0, ptr noundef %1, ptr noundef %2, i32 noundef %3) #0 {
  %5 = alloca ptr, align 8
  %6 = alloca ptr, align 8
  %7 = alloca ptr, align 8
  %8 = alloca i32, align 4
  %9 = alloca ptr, align 8
  %10 = alloca i32, align 4
  %11 = alloca ptr, align 8
  %12 = alloca i32, align 4
  %13 = alloca i32, align 4
  %14 = alloca i32, align 4
  store ptr %0, ptr %5, align 8, !tbaa !4
  store ptr %1, ptr %6, align 8, !tbaa !59
  store ptr %2, ptr %7, align 8, !tbaa !59
  store i32 %3, ptr %8, align 4, !tbaa !25
  call void @llvm.lifetime.start.p0(i64 8, ptr %9) #12
  %15 = load ptr, ptr %5, align 8, !tbaa !4
  %16 = getelementptr inbounds nuw %struct.lstopo_output, ptr %15, i32 0, i32 4
  %17 = load ptr, ptr %16, align 8, !tbaa !28
  store ptr %17, ptr %9, align 8, !tbaa !27
  call void @llvm.lifetime.start.p0(i64 4, ptr %10) #12
  %18 = load ptr, ptr %5, align 8, !tbaa !4
  %19 = getelementptr inbounds nuw %struct.lstopo_output, ptr %18, i32 0, i32 7
  %20 = load i32, ptr %19, align 8, !tbaa !24
  store i32 %20, ptr %10, align 4, !tbaa !25
  call void @llvm.lifetime.start.p0(i64 8, ptr %11) #12
  call void @llvm.lifetime.start.p0(i64 4, ptr %12) #12
  %21 = load i32, ptr %10, align 4, !tbaa !25
  %22 = icmp sle i32 %21, 1
  br i1 %22, label %23, label %29

23:                                               ; preds = %4
  %24 = load ptr, ptr %5, align 8, !tbaa !4
  %25 = getelementptr inbounds nuw %struct.lstopo_output, ptr %24, i32 0, i32 32
  %26 = load i32, ptr %25, align 8, !tbaa !78
  %27 = icmp ne i32 %26, 0
  %28 = xor i1 %27, true
  br label %29

29:                                               ; preds = %23, %4
  %30 = phi i1 [ false, %4 ], [ %28, %23 ]
  %31 = zext i1 %30 to i32
  store i32 %31, ptr %12, align 4, !tbaa !25
  call void @llvm.lifetime.start.p0(i64 4, ptr %13) #12
  %32 = load ptr, ptr %5, align 8, !tbaa !4
  %33 = getelementptr inbounds nuw %struct.lstopo_output, ptr %32, i32 0, i32 10
  %34 = load i32, ptr %33, align 4, !tbaa !79
  %35 = icmp ne i32 %34, 0
  br i1 %35, label %36, label %42

36:                                               ; preds = %29
  %37 = load ptr, ptr %6, align 8, !tbaa !59
  %38 = getelementptr inbounds nuw %struct.hwloc_obj, ptr %37, i32 0, i32 30
  %39 = load ptr, ptr %38, align 8, !tbaa !80
  %40 = getelementptr inbounds nuw %struct.lstopo_obj_userdata, ptr %39, i32 0, i32 1
  %41 = load i32, ptr %40, align 8, !tbaa !81
  br label %43

42:                                               ; preds = %29
  br label %43

43:                                               ; preds = %42, %36
  %44 = phi i32 [ %41, %36 ], [ 0, %42 ]
  store i32 %44, ptr %13, align 4, !tbaa !25
  %45 = load ptr, ptr %6, align 8, !tbaa !59
  %46 = getelementptr inbounds nuw %struct.hwloc_obj, ptr %45, i32 0, i32 0
  %47 = load i32, ptr %46, align 8, !tbaa !61
  %48 = icmp eq i32 %47, 17
  br i1 %48, label %49, label %53

49:                                               ; preds = %43
  %50 = load i32, ptr %13, align 4, !tbaa !25
  %51 = icmp eq i32 %50, -1
  br i1 %51, label %52, label %53

52:                                               ; preds = %49
  store i32 1, ptr %14, align 4
  br label %217

53:                                               ; preds = %49, %43
  %54 = load i32, ptr %12, align 4, !tbaa !25
  %55 = icmp ne i32 %54, 0
  br i1 %55, label %56, label %101

56:                                               ; preds = %53
  %57 = load ptr, ptr %7, align 8, !tbaa !59
  %58 = icmp ne ptr %57, null
  br i1 %58, label %59, label %101

59:                                               ; preds = %56
  %60 = load ptr, ptr %7, align 8, !tbaa !59
  %61 = getelementptr inbounds nuw %struct.hwloc_obj, ptr %60, i32 0, i32 14
  %62 = load i32, ptr %61, align 8, !tbaa !88
  %63 = icmp eq i32 %62, 1
  br i1 %63, label %64, label %101

64:                                               ; preds = %59
  %65 = load ptr, ptr %7, align 8, !tbaa !59
  %66 = getelementptr inbounds nuw %struct.hwloc_obj, ptr %65, i32 0, i32 19
  %67 = load i32, ptr %66, align 4, !tbaa !89
  %68 = icmp ne i32 %67, 0
  br i1 %68, label %101, label %69

69:                                               ; preds = %64
  %70 = load ptr, ptr %7, align 8, !tbaa !59
  %71 = getelementptr inbounds nuw %struct.hwloc_obj, ptr %70, i32 0, i32 21
  %72 = load i32, ptr %71, align 8, !tbaa !90
  %73 = icmp ne i32 %72, 0
  br i1 %73, label %101, label %74

74:                                               ; preds = %69
  %75 = load ptr, ptr %7, align 8, !tbaa !59
  %76 = getelementptr inbounds nuw %struct.hwloc_obj, ptr %75, i32 0, i32 23
  %77 = load i32, ptr %76, align 8, !tbaa !91
  %78 = icmp ne i32 %77, 0
  br i1 %78, label %101, label %79

79:                                               ; preds = %74
  %80 = load ptr, ptr %6, align 8, !tbaa !59
  %81 = getelementptr inbounds nuw %struct.hwloc_obj, ptr %80, i32 0, i32 25
  %82 = load ptr, ptr %81, align 8, !tbaa !92
  %83 = icmp ne ptr %82, null
  br i1 %83, label %84, label %101

84:                                               ; preds = %79
  %85 = load ptr, ptr %7, align 8, !tbaa !59
  %86 = getelementptr inbounds nuw %struct.hwloc_obj, ptr %85, i32 0, i32 25
  %87 = load ptr, ptr %86, align 8, !tbaa !92
  %88 = icmp ne ptr %87, null
  br i1 %88, label %89, label %101

89:                                               ; preds = %84
  %90 = load ptr, ptr %6, align 8, !tbaa !59
  %91 = getelementptr inbounds nuw %struct.hwloc_obj, ptr %90, i32 0, i32 25
  %92 = load ptr, ptr %91, align 8, !tbaa !92
  %93 = load ptr, ptr %7, align 8, !tbaa !59
  %94 = getelementptr inbounds nuw %struct.hwloc_obj, ptr %93, i32 0, i32 25
  %95 = load ptr, ptr %94, align 8, !tbaa !92
  %96 = call i32 @hwloc_bitmap_isequal(ptr noundef %92, ptr noundef %95) #14
  %97 = icmp ne i32 %96, 0
  br i1 %97, label %98, label %101

98:                                               ; preds = %89
  %99 = load ptr, ptr %9, align 8, !tbaa !27
  %100 = call i32 (ptr, ptr, ...) @fprintf(ptr noundef %99, ptr noundef @.str.77) #12
  br label %114

101:                                              ; preds = %89, %84, %79, %74, %69, %64, %59, %56, %53
  %102 = load ptr, ptr %7, align 8, !tbaa !59
  %103 = icmp ne ptr %102, null
  br i1 %103, label %104, label %107

104:                                              ; preds = %101
  %105 = load ptr, ptr %9, align 8, !tbaa !27
  %106 = call i32 (ptr, ptr, ...) @fprintf(ptr noundef %105, ptr noundef @.str.3) #12
  br label %107

107:                                              ; preds = %104, %101
  %108 = load ptr, ptr %9, align 8, !tbaa !27
  %109 = load i32, ptr %8, align 4, !tbaa !25
  %110 = mul nsw i32 2, %109
  %111 = call i32 (ptr, ptr, ...) @fprintf(ptr noundef %108, ptr noundef @.str.78, i32 noundef %110, ptr noundef @.str.8) #12
  %112 = load i32, ptr %8, align 4, !tbaa !25
  %113 = add nsw i32 %112, 1
  store i32 %113, ptr %8, align 4, !tbaa !25
  br label %114

114:                                              ; preds = %107, %98
  %115 = load i32, ptr %13, align 4, !tbaa !25
  %116 = icmp sgt i32 %115, 1
  br i1 %116, label %117, label %121

117:                                              ; preds = %114
  %118 = load ptr, ptr %9, align 8, !tbaa !27
  %119 = load i32, ptr %13, align 4, !tbaa !25
  %120 = call i32 (ptr, ptr, ...) @fprintf(ptr noundef %118, ptr noundef @.str.79, i32 noundef %119) #12
  br label %121

121:                                              ; preds = %117, %114
  %122 = load ptr, ptr %5, align 8, !tbaa !4
  %123 = load ptr, ptr %6, align 8, !tbaa !59
  %124 = load i32, ptr %13, align 4, !tbaa !25
  call void @output_console_obj(ptr noundef %122, ptr noundef %123, i32 noundef %124)
  %125 = load i32, ptr %13, align 4, !tbaa !25
  %126 = icmp sgt i32 %125, 1
  br i1 %126, label %127, label %130

127:                                              ; preds = %121
  %128 = load ptr, ptr %9, align 8, !tbaa !27
  %129 = call i32 (ptr, ptr, ...) @fprintf(ptr noundef %128, ptr noundef @.str.80) #12
  br label %130

130:                                              ; preds = %127, %121
  %131 = load ptr, ptr %6, align 8, !tbaa !59
  %132 = getelementptr inbounds nuw %struct.hwloc_obj, ptr %131, i32 0, i32 20
  %133 = load ptr, ptr %132, align 8, !tbaa !72
  store ptr %133, ptr %11, align 8, !tbaa !59
  br label %134

134:                                              ; preds = %153, %130
  %135 = load ptr, ptr %11, align 8, !tbaa !59
  %136 = icmp ne ptr %135, null
  br i1 %136, label %137, label %157

137:                                              ; preds = %134
  %138 = load ptr, ptr %11, align 8, !tbaa !59
  %139 = getelementptr inbounds nuw %struct.hwloc_obj, ptr %138, i32 0, i32 0
  %140 = load i32, ptr %139, align 8, !tbaa !61
  %141 = icmp ne i32 %140, 4
  br i1 %141, label %147, label %142

142:                                              ; preds = %137
  %143 = load ptr, ptr %5, align 8, !tbaa !4
  %144 = getelementptr inbounds nuw %struct.lstopo_output, ptr %143, i32 0, i32 9
  %145 = load i32, ptr %144, align 8, !tbaa !93
  %146 = icmp ne i32 %145, 0
  br i1 %146, label %152, label %147

147:                                              ; preds = %142, %137
  %148 = load ptr, ptr %5, align 8, !tbaa !4
  %149 = load ptr, ptr %11, align 8, !tbaa !59
  %150 = load ptr, ptr %6, align 8, !tbaa !59
  %151 = load i32, ptr %8, align 4, !tbaa !25
  call void @output_topology(ptr noundef %148, ptr noundef %149, ptr noundef %150, i32 noundef %151)
  br label %152

152:                                              ; preds = %147, %142
  br label %153

153:                                              ; preds = %152
  %154 = load ptr, ptr %11, align 8, !tbaa !59
  %155 = getelementptr inbounds nuw %struct.hwloc_obj, ptr %154, i32 0, i32 12
  %156 = load ptr, ptr %155, align 8, !tbaa !70
  store ptr %156, ptr %11, align 8, !tbaa !59
  br label %134, !llvm.loop !94

157:                                              ; preds = %134
  %158 = load ptr, ptr %6, align 8, !tbaa !59
  %159 = getelementptr inbounds nuw %struct.hwloc_obj, ptr %158, i32 0, i32 16
  %160 = load ptr, ptr %159, align 8, !tbaa !69
  store ptr %160, ptr %11, align 8, !tbaa !59
  br label %161

161:                                              ; preds = %180, %157
  %162 = load ptr, ptr %11, align 8, !tbaa !59
  %163 = icmp ne ptr %162, null
  br i1 %163, label %164, label %184

164:                                              ; preds = %161
  %165 = load ptr, ptr %11, align 8, !tbaa !59
  %166 = getelementptr inbounds nuw %struct.hwloc_obj, ptr %165, i32 0, i32 0
  %167 = load i32, ptr %166, align 8, !tbaa !61
  %168 = icmp ne i32 %167, 4
  br i1 %168, label %174, label %169

169:                                              ; preds = %164
  %170 = load ptr, ptr %5, align 8, !tbaa !4
  %171 = getelementptr inbounds nuw %struct.lstopo_output, ptr %170, i32 0, i32 8
  %172 = load i32, ptr %171, align 4, !tbaa !95
  %173 = icmp ne i32 %172, 0
  br i1 %173, label %179, label %174

174:                                              ; preds = %169, %164
  %175 = load ptr, ptr %5, align 8, !tbaa !4
  %176 = load ptr, ptr %11, align 8, !tbaa !59
  %177 = load ptr, ptr %6, align 8, !tbaa !59
  %178 = load i32, ptr %8, align 4, !tbaa !25
  call void @output_topology(ptr noundef %175, ptr noundef %176, ptr noundef %177, i32 noundef %178)
  br label %179

179:                                              ; preds = %174, %169
  br label %180

180:                                              ; preds = %179
  %181 = load ptr, ptr %11, align 8, !tbaa !59
  %182 = getelementptr inbounds nuw %struct.hwloc_obj, ptr %181, i32 0, i32 12
  %183 = load ptr, ptr %182, align 8, !tbaa !70
  store ptr %183, ptr %11, align 8, !tbaa !59
  br label %161, !llvm.loop !96

184:                                              ; preds = %161
  %185 = load ptr, ptr %6, align 8, !tbaa !59
  %186 = getelementptr inbounds nuw %struct.hwloc_obj, ptr %185, i32 0, i32 22
  %187 = load ptr, ptr %186, align 8, !tbaa !74
  store ptr %187, ptr %11, align 8, !tbaa !59
  br label %188

188:                                              ; preds = %196, %184
  %189 = load ptr, ptr %11, align 8, !tbaa !59
  %190 = icmp ne ptr %189, null
  br i1 %190, label %191, label %200

191:                                              ; preds = %188
  %192 = load ptr, ptr %5, align 8, !tbaa !4
  %193 = load ptr, ptr %11, align 8, !tbaa !59
  %194 = load ptr, ptr %6, align 8, !tbaa !59
  %195 = load i32, ptr %8, align 4, !tbaa !25
  call void @output_topology(ptr noundef %192, ptr noundef %193, ptr noundef %194, i32 noundef %195)
  br label %196

196:                                              ; preds = %191
  %197 = load ptr, ptr %11, align 8, !tbaa !59
  %198 = getelementptr inbounds nuw %struct.hwloc_obj, ptr %197, i32 0, i32 12
  %199 = load ptr, ptr %198, align 8, !tbaa !70
  store ptr %199, ptr %11, align 8, !tbaa !59
  br label %188, !llvm.loop !97

200:                                              ; preds = %188
  %201 = load ptr, ptr %6, align 8, !tbaa !59
  %202 = getelementptr inbounds nuw %struct.hwloc_obj, ptr %201, i32 0, i32 24
  %203 = load ptr, ptr %202, align 8, !tbaa !76
  store ptr %203, ptr %11, align 8, !tbaa !59
  br label %204

204:                                              ; preds = %212, %200
  %205 = load ptr, ptr %11, align 8, !tbaa !59
  %206 = icmp ne ptr %205, null
  br i1 %206, label %207, label %216

207:                                              ; preds = %204
  %208 = load ptr, ptr %5, align 8, !tbaa !4
  %209 = load ptr, ptr %11, align 8, !tbaa !59
  %210 = load ptr, ptr %6, align 8, !tbaa !59
  %211 = load i32, ptr %8, align 4, !tbaa !25
  call void @output_topology(ptr noundef %208, ptr noundef %209, ptr noundef %210, i32 noundef %211)
  br label %212

212:                                              ; preds = %207
  %213 = load ptr, ptr %11, align 8, !tbaa !59
  %214 = getelementptr inbounds nuw %struct.hwloc_obj, ptr %213, i32 0, i32 12
  %215 = load ptr, ptr %214, align 8, !tbaa !70
  store ptr %215, ptr %11, align 8, !tbaa !59
  br label %204, !llvm.loop !98

216:                                              ; preds = %204
  store i32 0, ptr %14, align 4
  br label %217

217:                                              ; preds = %216, %52
  call void @llvm.lifetime.end.p0(i64 4, ptr %13) #12
  call void @llvm.lifetime.end.p0(i64 4, ptr %12) #12
  call void @llvm.lifetime.end.p0(i64 8, ptr %11) #12
  call void @llvm.lifetime.end.p0(i64 4, ptr %10) #12
  call void @llvm.lifetime.end.p0(i64 8, ptr %9) #12
  %218 = load i32, ptr %14, align 4
  switch i32 %218, label %220 [
    i32 0, label %219
    i32 1, label %219
  ]

219:                                              ; preds = %217, %217
  ret void

220:                                              ; preds = %217
  unreachable
}