; Function Attrs: nounwind uwtable
define internal fastcc void @output_topology(ptr noundef %0, ptr noundef %1, ptr noundef readonly captures(address_is_null) %2, i32 noundef %3) unnamed_addr #0 {
  %5 = getelementptr inbounds nuw i8, ptr %0, i64 24
  %6 = load ptr, ptr %5, align 8, !tbaa !24
  %7 = getelementptr inbounds nuw i8, ptr %0, i64 40
  %8 = load i32, ptr %7, align 8, !tbaa !20
  %9 = icmp slt i32 %8, 2
  br i1 %9, label %10, label %13

10:                                               ; preds = %4
  %11 = getelementptr inbounds nuw i8, ptr %0, i64 648
  %12 = load i32, ptr %11, align 8, !tbaa !83
  %.not = icmp eq i32 %12, 0
  br label %13

13:                                               ; preds = %10, %4
  %14 = phi i1 [ false, %4 ], [ %.not, %10 ]
  %15 = getelementptr inbounds nuw i8, ptr %0, i64 52
  %16 = load i32, ptr %15, align 4, !tbaa !84
  %.not71 = icmp eq i32 %16, 0
  br i1 %.not71, label %.thread, label %17

17:                                               ; preds = %13
  %18 = getelementptr inbounds nuw i8, ptr %1, i64 232
  %19 = load ptr, ptr %18, align 8, !tbaa !85
  %20 = getelementptr inbounds nuw i8, ptr %19, i64 32
  %21 = load i32, ptr %20, align 8, !tbaa !86
  %22 = load i32, ptr %1, align 8, !tbaa !53
  %23 = icmp eq i32 %22, 17
  %24 = icmp eq i32 %21, -1
  %or.cond = select i1 %23, i1 %24, i1 false
  br i1 %or.cond, label %.loopexit, label %.thread

.thread:                                          ; preds = %13, %17
  %25 = phi i32 [ %21, %17 ], [ 0, %13 ]
  %26 = icmp ne ptr %2, null
  %or.cond3 = and i1 %26, %14
  br i1 %or.cond3, label %27, label %50

27:                                               ; preds = %.thread
  %28 = getelementptr inbounds nuw i8, ptr %2, i64 104
  %29 = load i32, ptr %28, align 8, !tbaa !93
  %30 = icmp eq i32 %29, 1
  br i1 %30, label %31, label %.thread87

31:                                               ; preds = %27
  %32 = getelementptr inbounds nuw i8, ptr %2, i64 140
  %33 = load i32, ptr %32, align 4, !tbaa !94
  %.not72 = icmp eq i32 %33, 0
  br i1 %.not72, label %34, label %.thread87

34:                                               ; preds = %31
  %35 = getelementptr inbounds nuw i8, ptr %2, i64 152
  %36 = load i32, ptr %35, align 8, !tbaa !95
  %.not73 = icmp eq i32 %36, 0
  br i1 %.not73, label %37, label %.thread87

37:                                               ; preds = %34
  %38 = getelementptr inbounds nuw i8, ptr %2, i64 168
  %39 = load i32, ptr %38, align 8, !tbaa !96
  %.not74 = icmp eq i32 %39, 0
  br i1 %.not74, label %40, label %.thread87

40:                                               ; preds = %37
  %41 = getelementptr inbounds nuw i8, ptr %1, i64 184
  %42 = load ptr, ptr %41, align 8, !tbaa !97
  %.not75 = icmp eq ptr %42, null
  br i1 %.not75, label %.thread87, label %43

43:                                               ; preds = %40
  %44 = getelementptr inbounds nuw i8, ptr %2, i64 184
  %45 = load ptr, ptr %44, align 8, !tbaa !97
  %.not76 = icmp eq ptr %45, null
  br i1 %.not76, label %.thread87, label %46

46:                                               ; preds = %43
  %47 = tail call i32 @hwloc_bitmap_isequal(ptr noundef nonnull %42, ptr noundef nonnull %45) #21
  %.not77 = icmp eq i32 %47, 0
  br i1 %.not77, label %.thread87, label %48

48:                                               ; preds = %46
  %49 = tail call i64 @fwrite(ptr nonnull @.str.77, i64 3, i64 1, ptr %6)
  br label %55

50:                                               ; preds = %.thread
  br i1 %26, label %.thread87, label %51

.thread87:                                        ; preds = %27, %31, %34, %37, %40, %43, %46, %50
  %fputc = tail call i32 @fputc(i32 10, ptr %6)
  br label %51

51:                                               ; preds = %.thread87, %50
  %52 = shl nsw i32 %3, 1
  %53 = tail call i32 (ptr, ptr, ...) @fprintf(ptr noundef %6, ptr noundef nonnull @.str.78, i32 noundef %52, ptr noundef nonnull @.str.8) #18
  %54 = add nsw i32 %3, 1
  br label %55

55:                                               ; preds = %51, %48
  %.0 = phi i32 [ %54, %51 ], [ %3, %48 ]
  %56 = icmp sgt i32 %25, 1
  br i1 %56, label %57, label %.critedge

57:                                               ; preds = %55
  %58 = tail call i32 (ptr, ptr, ...) @fprintf(ptr noundef %6, ptr noundef nonnull @.str.79, i32 noundef %25) #18
  tail call fastcc void @output_console_obj(ptr noundef nonnull %0, ptr noundef nonnull %1, i32 noundef %25)
  %59 = tail call i64 @fwrite(ptr nonnull @.str.80, i64 2, i64 1, ptr %6)
  br label %60

.critedge:                                        ; preds = %55
  tail call fastcc void @output_console_obj(ptr noundef nonnull %0, ptr noundef nonnull %1, i32 noundef %25)
  br label %60

60:                                               ; preds = %.critedge, %57
  %61 = getelementptr inbounds nuw i8, ptr %1, i64 144
  %.06688 = load ptr, ptr %61, align 8, !tbaa !51
  %.not7889 = icmp eq ptr %.06688, null
  br i1 %.not7889, label %._crit_edge, label %.lr.ph

.lr.ph:                                           ; preds = %60
  %62 = getelementptr inbounds nuw i8, ptr %0, i64 48
  br label %63

63:                                               ; preds = %.lr.ph, %68
  %.06690 = phi ptr [ %.06688, %.lr.ph ], [ %.066, %68 ]
  %64 = load i32, ptr %.06690, align 8, !tbaa !53
  %.not84 = icmp eq i32 %64, 4
  br i1 %.not84, label %65, label %67

65:                                               ; preds = %63
  %66 = load i32, ptr %62, align 8, !tbaa !98
  %.not85 = icmp eq i32 %66, 0
  br i1 %.not85, label %67, label %68

67:                                               ; preds = %65, %63
  tail call fastcc void @output_topology(ptr noundef %0, ptr noundef nonnull %.06690, ptr noundef nonnull %1, i32 noundef %.0)
  br label %68

68:                                               ; preds = %65, %67
  %69 = getelementptr inbounds nuw i8, ptr %.06690, i64 88
  %.066 = load ptr, ptr %69, align 8, !tbaa !51
  %.not78 = icmp eq ptr %.066, null
  br i1 %.not78, label %._crit_edge, label %63, !llvm.loop !99

._crit_edge:                                      ; preds = %68, %60
  %70 = getelementptr inbounds nuw i8, ptr %1, i64 120
  %.191 = load ptr, ptr %70, align 8, !tbaa !51
  %.not7992 = icmp eq ptr %.191, null
  br i1 %.not7992, label %._crit_edge96, label %.lr.ph95

.lr.ph95:                                         ; preds = %._crit_edge
  %71 = getelementptr inbounds nuw i8, ptr %0, i64 44
  br label %72

72:                                               ; preds = %.lr.ph95, %77
  %.193 = phi ptr [ %.191, %.lr.ph95 ], [ %.1, %77 ]
  %73 = load i32, ptr %.193, align 8, !tbaa !53
  %.not82 = icmp eq i32 %73, 4
  br i1 %.not82, label %74, label %76

74:                                               ; preds = %72
  %75 = load i32, ptr %71, align 4, !tbaa !100
  %.not83 = icmp eq i32 %75, 0
  br i1 %.not83, label %76, label %77

76:                                               ; preds = %74, %72
  tail call fastcc void @output_topology(ptr noundef %0, ptr noundef nonnull %.193, ptr noundef nonnull %1, i32 noundef %.0)
  br label %77

77:                                               ; preds = %74, %76
  %78 = getelementptr inbounds nuw i8, ptr %.193, i64 88
  %.1 = load ptr, ptr %78, align 8, !tbaa !51
  %.not79 = icmp eq ptr %.1, null
  br i1 %.not79, label %._crit_edge96, label %72, !llvm.loop !101

._crit_edge96:                                    ; preds = %77, %._crit_edge
  %79 = getelementptr inbounds nuw i8, ptr %1, i64 160
  %.297 = load ptr, ptr %79, align 8, !tbaa !51
  %.not8098 = icmp eq ptr %.297, null
  br i1 %.not8098, label %._crit_edge102, label %.lr.ph101

.lr.ph101:                                        ; preds = %._crit_edge96, %.lr.ph101
  %.299 = phi ptr [ %.2, %.lr.ph101 ], [ %.297, %._crit_edge96 ]
  tail call fastcc void @output_topology(ptr noundef %0, ptr noundef nonnull %.299, ptr noundef nonnull %1, i32 noundef %.0)
  %80 = getelementptr inbounds nuw i8, ptr %.299, i64 88
  %.2 = load ptr, ptr %80, align 8, !tbaa !51
  %.not80 = icmp eq ptr %.2, null
  br i1 %.not80, label %._crit_edge102, label %.lr.ph101, !llvm.loop !102

._crit_edge102:                                   ; preds = %.lr.ph101, %._crit_edge96
  %81 = getelementptr inbounds nuw i8, ptr %1, i64 176
  %.3103 = load ptr, ptr %81, align 8, !tbaa !51
  %.not81104 = icmp eq ptr %.3103, null
  br i1 %.not81104, label %.loopexit, label %.lr.ph107

.lr.ph107:                                        ; preds = %._crit_edge102, %.lr.ph107
  %.3105 = phi ptr [ %.3, %.lr.ph107 ], [ %.3103, %._crit_edge102 ]
  tail call fastcc void @output_topology(ptr noundef %0, ptr noundef nonnull %.3105, ptr noundef nonnull %1, i32 noundef %.0)
  %82 = getelementptr inbounds nuw i8, ptr %.3105, i64 88
  %.3 = load ptr, ptr %82, align 8, !tbaa !51
  %.not81 = icmp eq ptr %.3, null
  br i1 %.not81, label %.loopexit, label %.lr.ph107, !llvm.loop !103

.loopexit:                                        ; preds = %.lr.ph107, %._crit_edge102, %17
  ret void
}